target datalayout = "e-m:e-p270:32:32-p271:32:32-p272:64:64-i64:64-i128:128-f80:128-n8:16:32:64-S128"
target triple = "x86_64-pc-linux-gnu"

%"struct.std::_Rb_tree_key_compare" = type { %"struct.std::less" }
%"struct.std::less" = type { i8 }
%"struct.std::_Rb_tree_header" = type { %"struct.std::_Rb_tree_node_base", i64 }
%"struct.std::_Rb_tree_node_base" = type { i32, ptr, ptr, ptr }
%"struct.std::__detail::_Hash_node_base" = type { ptr }
%"struct.std::__detail::_Prime_rehash_policy" = type { float, i64 }
%class.V3Global = type { ptr, ptr, %class.VWidthMinUsage, %"struct.std::atomic", i8, i8, i8, i8, i8, i8, i8, i8, i8, i8, i8, i8, i8, i8, i8, i8, %"class.std::unordered_map.33", %"class.std::unordered_set", %class.V3Options }
%class.VWidthMinUsage = type { i8 }
%"struct.std::atomic" = type { %"struct.std::__atomic_base" }
%"struct.std::__atomic_base" = type { i32 }
%"class.std::unordered_map.33" = type { %"class.std::_Hashtable.34" }
%"class.std::_Hashtable.34" = type { ptr, i64, %"struct.std::__detail::_Hash_node_base", i64, %"struct.std::__detail::_Prime_rehash_policy", ptr }
%"class.std::unordered_set" = type { %"class.std::_Hashtable.53" }
%"class.std::_Hashtable.53" = type { ptr, i64, %"struct.std::__detail::_Hash_node_base", i64, %"struct.std::__detail::_Prime_rehash_policy", ptr }
%class.V3Options = type <{ ptr, %"class.std::set", %"class.std::vector.78", %"class.std::vector.78", %"class.std::vector.78", %"class.std::set", %"class.std::set", %"class.std::set", %"class.std::set", %"class.std::set", %"class.std::set", %"class.std::vector.78", %"class.std::vector.78", %"class.std::map.80", %"class.std::map.80", %"class.std::map.85", %"class.std::map.90", %"class.std::set", i8, i8, i8, i8, i8, i8, i8, i8, i8, i8, i8, i8, i8, i8, i8, i8, i8, i8, i8, i8, i8, i8, i8, i8, i8, i8, i8, i8, i8, i8, i8, i8, i8, i8, i8, i8, i8, i8, i8, i8, i8, i8, i8, i8, i8, i8, i8, i8, i8, i8, i8, i8, i8, i8, i8, i8, i8, i8, i8, i8, i8, i8, i8, i8, i8, i8, %class.VOptionBool, i8, i8, i8, i8, i8, i8, i8, i8, i8, i8, i8, i8, i8, i32, i32, i32, i32, i32, i32, i32, i32, i32, i8, i8, %class.VOptionBool, i8, i32, i32, i32, i32, i32, i32, i32, i32, %class.VOptionBool, i8, [2 x i8], i32, i32, %class.VTimescale, %class.VTimescale, %class.VTimescale, %class.VTimescale, i32, %class.TraceFormat, [3 x i8], i32, i32, i32, i32, i32, i32, i32, i32, i32, [4 x i8], %"class.std::__cxx11::basic_string", %"class.std::__cxx11::basic_string", %"class.std::__cxx11::basic_string", %"class.std::__cxx11::basic_string", %"class.std::__cxx11::basic_string", %"class.std::__cxx11::basic_string", %"class.std::__cxx11::basic_string", %"class.std::__cxx11::basic_string", %"class.std::__cxx11::basic_string", %"class.std::__cxx11::basic_string", %"class.std::__cxx11::basic_string", %"class.std::__cxx11::basic_string", %"class.std::__cxx11::basic_string", %"class.std::__cxx11::basic_string", %"class.std::__cxx11::basic_string", %"class.std::__cxx11::basic_string", %"class.std::__cxx11::basic_string", %"class.std::__cxx11::basic_string", %"class.std::__cxx11::basic_string", %class.V3LangCode, i8, i8, i8, i8, i8, i8, i8, i8, i8, i8, i8, i8, i8, i8, i8, i8, i8, i8, i8, i8, i8, i8, i8, i8, i8, i8, i8, i8, i8, i8, i8 }>
%"class.std::vector.78" = type { %"struct.std::_Vector_base.79" }
%"struct.std::_Vector_base.79" = type { %"struct.std::_Vector_base<std::__cxx11::basic_string<char>, std::allocator<std::__cxx11::basic_string<char>>>::_Vector_impl" }
%"struct.std::_Vector_base<std::__cxx11::basic_string<char>, std::allocator<std::__cxx11::basic_string<char>>>::_Vector_impl" = type { %"struct.std::_Vector_base<std::__cxx11::basic_string<char>, std::allocator<std::__cxx11::basic_string<char>>>::_Vector_impl_data" }
%"struct.std::_Vector_base<std::__cxx11::basic_string<char>, std::allocator<std::__cxx11::basic_string<char>>>::_Vector_impl_data" = type { ptr, ptr, ptr }
%"class.std::map.80" = type { %"class.std::_Rb_tree.81" }
%"class.std::_Rb_tree.81" = type { %"struct.std::_Rb_tree<const std::__cxx11::basic_string<char>, std::pair<const std::__cxx11::basic_string<char>, unsigned int>, std::_Select1st<std::pair<const std::__cxx11::basic_string<char>, unsigned int>>, std::less<const std::__cxx11::basic_string<char>>>::_Rb_tree_impl" }
%"struct.std::_Rb_tree<const std::__cxx11::basic_string<char>, std::pair<const std::__cxx11::basic_string<char>, unsigned int>, std::_Select1st<std::pair<const std::__cxx11::basic_string<char>, unsigned int>>, std::less<const std::__cxx11::basic_string<char>>>::_Rb_tree_impl" = type { %"struct.std::_Rb_tree_key_compare", %"struct.std::_Rb_tree_header" }
%"class.std::map.85" = type { %"class.std::_Rb_tree.86" }
%"class.std::_Rb_tree.86" = type { %"struct.std::_Rb_tree<const std::__cxx11::basic_string<char>, std::pair<const std::__cxx11::basic_string<char>, std::__cxx11::basic_string<char>>, std::_Select1st<std::pair<const std::__cxx11::basic_string<char>, std::__cxx11::basic_string<char>>>, std::less<const std::__cxx11::basic_string<char>>>::_Rb_tree_impl" }
%"struct.std::_Rb_tree<const std::__cxx11::basic_string<char>, std::pair<const std::__cxx11::basic_string<char>, std::__cxx11::basic_string<char>>, std::_Select1st<std::pair<const std::__cxx11::basic_string<char>, std::__cxx11::basic_string<char>>>, std::less<const std::__cxx11::basic_string<char>>>::_Rb_tree_impl" = type { %"struct.std::_Rb_tree_key_compare", %"struct.std::_Rb_tree_header" }
%"class.std::map.90" = type { %"class.std::_Rb_tree.91" }
%"class.std::_Rb_tree.91" = type { %"struct.std::_Rb_tree<const std::__cxx11::basic_string<char>, std::pair<const std::__cxx11::basic_string<char>, V3HierarchicalBlockOption>, std::_Select1st<std::pair<const std::__cxx11::basic_string<char>, V3HierarchicalBlockOption>>, std::less<const std::__cxx11::basic_string<char>>>::_Rb_tree_impl" }
%"struct.std::_Rb_tree<const std::__cxx11::basic_string<char>, std::pair<const std::__cxx11::basic_string<char>, V3HierarchicalBlockOption>, std::_Select1st<std::pair<const std::__cxx11::basic_string<char>, V3HierarchicalBlockOption>>, std::less<const std::__cxx11::basic_string<char>>>::_Rb_tree_impl" = type { %"struct.std::_Rb_tree_key_compare", %"struct.std::_Rb_tree_header" }
%"class.std::set" = type { %"class.std::_Rb_tree.72" }
%"class.std::_Rb_tree.72" = type { %"struct.std::_Rb_tree<std::__cxx11::basic_string<char>, std::__cxx11::basic_string<char>, std::_Identity<std::__cxx11::basic_string<char>>, std::less<std::__cxx11::basic_string<char>>>::_Rb_tree_impl" }
%"struct.std::_Rb_tree<std::__cxx11::basic_string<char>, std::__cxx11::basic_string<char>, std::_Identity<std::__cxx11::basic_string<char>>, std::less<std::__cxx11::basic_string<char>>>::_Rb_tree_impl" = type { %"struct.std::_Rb_tree_key_compare.76", %"struct.std::_Rb_tree_header" }
%"struct.std::_Rb_tree_key_compare.76" = type { %"struct.std::less.77" }
%"struct.std::less.77" = type { i8 }
%class.VOptionBool = type { i8 }
%class.VTimescale = type { i8 }
%class.TraceFormat = type { i8 }
%"class.std::__cxx11::basic_string" = type { %"struct.std::__cxx11::basic_string<char>::_Alloc_hider", i64, %union.anon }
%"struct.std::__cxx11::basic_string<char>::_Alloc_hider" = type { ptr }
%union.anon = type { i64, [8 x i8] }
%class.V3LangCode = type { i8 }
%"class.std::allocator" = type { i8 }

@.str.34 = private unnamed_addr constant [50 x i8] c"basic_string: construction from null is not valid\00", align 1
@.str.38 = private unnamed_addr constant [1 x i8] zeroinitializer, align 1
@v3Global = external global %class.V3Global, align 8
@_ZZL5debugvE5level = internal global i32 -1, align 4
@.str.41 = private unnamed_addr constant [116 x i8] c"generated/home/dtcxzyw/WorkSpace/Projects/compilers/llvm-opt-benchmark/bench/verilator/verilator/src/V3PreShell.cpp\00", align 1

; Function Attrs: mustprogress nounwind uwtable
define linkonce_odr dso_local noundef i64 @_ZNSt11char_traitsIcE6lengthEPKc(ptr noundef %0) #5 comdat align 2 {
  %2 = alloca ptr, align 8
  store ptr %0, ptr %2, align 8
  %3 = load ptr, ptr %2, align 8
  %4 = call i64 @strlen(ptr noundef %3) #3
  ret i64 %4
}

; Function Attrs: mustprogress nounwind uwtable
define linkonce_odr dso_local void @_ZNSt7__cxx1112basic_stringIcSt11char_traitsIcESaIcEE12_Alloc_hiderD2Ev(ptr noundef nonnull align 8 dereferenceable(8) %0) unnamed_addr #5 comdat align 2 {
  %2 = alloca ptr, align 8
  store ptr %0, ptr %2, align 8
  %3 = load ptr, ptr %2, align 8
  call void @_ZNSaIcED2Ev(ptr noundef nonnull align 1 dereferenceable(1) %3) #3
  ret void
}

; Function Attrs: mustprogress nounwind uwtable
define linkonce_odr dso_local noundef zeroext i1 @_ZNK9V3Options9availableEv(ptr noundef nonnull align 8 dereferenceable(1560) %0) #5 comdat align 2 {
  %2 = alloca ptr, align 8
  store ptr %0, ptr %2, align 8
  %3 = load ptr, ptr %2, align 8
  %4 = getelementptr inbounds %class.V3Options, ptr %3, i32 0, i32 190
  %5 = load i8, ptr %4, align 2
  %6 = trunc i8 %5 to i1
  ret i1 %6
}

; Function Attrs: mustprogress uwtable
define linkonce_odr dso_local void @_ZNSt7__cxx1112basic_stringIcSt11char_traitsIcESaIcEEC2IS3_EEPKcRKS3_(ptr noundef nonnull align 8 dereferenceable(32) %0, ptr noundef %1, ptr noundef nonnull align 1 dereferenceable(1) %2) unnamed_addr #4 comdat align 2 personality ptr @__gxx_personality_v0 {
  %4 = alloca ptr, align 8
  %5 = alloca ptr, align 8
  %6 = alloca ptr, align 8
  %7 = alloca ptr, align 8
  %8 = alloca i32, align 4
  %9 = alloca ptr, align 8
  store ptr %0, ptr %4, align 8
  store ptr %1, ptr %5, align 8
  store ptr %2, ptr %6, align 8
  %10 = load ptr, ptr %4, align 8
  %11 = getelementptr inbounds %"class.std::__cxx11::basic_string", ptr %10, i32 0, i32 0
  %12 = call noundef ptr @_ZNSt7__cxx1112basic_stringIcSt11char_traitsIcESaIcEE13_M_local_dataEv(ptr noundef nonnull align 8 dereferenceable(32) %10)
  %13 = load ptr, ptr %6, align 8
  call void @_ZNSt7__cxx1112basic_stringIcSt11char_traitsIcESaIcEE12_Alloc_hiderC1EPcRKS3_(ptr noundef nonnull align 8 dereferenceable(8) %11, ptr noundef %12, ptr noundef nonnull align 1 dereferenceable(1) %13)
  %14 = load ptr, ptr %5, align 8
  %15 = icmp eq ptr %14, null
  br i1 %15, label %16, label %22

16:                                               ; preds = %3
  invoke void @_ZSt19__throw_logic_errorPKc(ptr noundef @.str.34) #16
          to label %17 unwind label %18

17:                                               ; preds = %16
  unreachable

18:                                               ; preds = %26, %22, %16
  %19 = landingpad { ptr, i32 }
          cleanup
  %20 = extractvalue { ptr, i32 } %19, 0
  store ptr %20, ptr %7, align 8
  %21 = extractvalue { ptr, i32 } %19, 1
  store i32 %21, ptr %8, align 4
  call void @_ZNSt7__cxx1112basic_stringIcSt11char_traitsIcESaIcEE12_Alloc_hiderD2Ev(ptr noundef nonnull align 8 dereferenceable(8) %11) #3
  br label %31

22:                                               ; preds = %3
  %23 = load ptr, ptr %5, align 8
  %24 = load ptr, ptr %5, align 8
  %25 = invoke noundef i64 @_ZNSt11char_traitsIcE6lengthEPKc(ptr noundef %24)
          to label %26 unwind label %18

26:                                               ; preds = %22
  %27 = getelementptr inbounds i8, ptr %23, i64 %25
  store ptr %27, ptr %9, align 8
  %28 = load ptr, ptr %5, align 8
  %29 = load ptr, ptr %9, align 8
  invoke void @_ZNSt7__cxx1112basic_stringIcSt11char_traitsIcESaIcEE12_M_constructIPKcEEvT_S8_St20forward_iterator_tag(ptr noundef nonnull align 8 dereferenceable(32) %10, ptr noundef %28, ptr noundef %29)
          to label %30 unwind label %18

30:                                               ; preds = %26
  ret void

31:                                               ; preds = %18
  %32 = load ptr, ptr %7, align 8
  %33 = load i32, ptr %8, align 4
  %34 = insertvalue { ptr, i32 } poison, ptr %32, 0
  %35 = insertvalue { ptr, i32 } %34, i32 %33, 1
  resume { ptr, i32 } %35
}

; Function Attrs: mustprogress uwtable
define internal noundef i32 @_ZL5debugv() #4 personality ptr @__gxx_personality_v0 {
  %1 = alloca i32, align 4
  %2 = alloca %"class.std::__cxx11::basic_string", align 8
  %3 = alloca %"class.std::allocator", align 1
  %4 = alloca ptr, align 8
  %5 = alloca i32, align 4
  %6 = alloca i32, align 4
  %7 = alloca i32, align 4
  %8 = alloca %"class.std::__cxx11::basic_string", align 8
  %9 = alloca %"class.std::allocator", align 1
  %10 = alloca i32, align 4
  %11 = alloca i32, align 4
  %12 = load i32, ptr @_ZZL5debugvE5level, align 4
  %13 = icmp slt i32 %12, 0
  %14 = xor i1 %13, true
  %15 = xor i1 %14, true
  br i1 %15, label %16, label %67

16:                                               ; preds = %0
  call void @_ZNSaIcEC1Ev(ptr noundef nonnull align 1 dereferenceable(1) %3) #3
  invoke void @_ZNSt7__cxx1112basic_stringIcSt11char_traitsIcESaIcEEC2IS3_EEPKcRKS3_(ptr noundef nonnull align 8 dereferenceable(32) %2, ptr noundef @.str.38, ptr noundef nonnull align 1 dereferenceable(1) %3)
          to label %17 unwind label %44

17:                                               ; preds = %16
  call void @_ZNSaIcED1Ev(ptr noundef nonnull align 1 dereferenceable(1) %3) #3
  %18 = invoke noundef nonnull align 1 dereferenceable(1) ptr @_ZNSt7__cxx1112basic_stringIcSt11char_traitsIcESaIcEEixEm(ptr noundef nonnull align 8 dereferenceable(32) %2, i64 noundef 0)
          to label %19 unwind label %48

19:                                               ; preds = %17
  %20 = load i8, ptr %18, align 1
  %21 = sext i8 %20 to i32
  %22 = call i32 @tolower(i32 noundef %21) #18
  %23 = trunc i32 %22 to i8
  %24 = invoke noundef nonnull align 1 dereferenceable(1) ptr @_ZNSt7__cxx1112basic_stringIcSt11char_traitsIcESaIcEEixEm(ptr noundef nonnull align 8 dereferenceable(32) %2, i64 noundef 0)
          to label %25 unwind label %48

25:                                               ; preds = %19
  store i8 %23, ptr %24, align 1
  %26 = invoke noundef i32 @_ZNK9V3Options10debugLevelERKNSt7__cxx1112basic_stringIcSt11char_traitsIcESaIcEEE(ptr noundef nonnull align 8 dereferenceable(1560) getelementptr inbounds (%class.V3Global, ptr @v3Global, i32 0, i32 22), ptr noundef nonnull align 8 dereferenceable(32) %2)
          to label %27 unwind label %48

27:                                               ; preds = %25
  store i32 %26, ptr %6, align 4
  call void @_ZNSaIcEC1Ev(ptr noundef nonnull align 1 dereferenceable(1) %9) #3
  invoke void @_ZNSt7__cxx1112basic_stringIcSt11char_traitsIcESaIcEEC2IS3_EEPKcRKS3_(ptr noundef nonnull align 8 dereferenceable(32) %8, ptr noundef @.str.41, ptr noundef nonnull align 1 dereferenceable(1) %9)
          to label %28 unwind label %52

28:                                               ; preds = %27
  %29 = invoke noundef i32 @_ZNK9V3Options13debugSrcLevelERKNSt7__cxx1112basic_stringIcSt11char_traitsIcESaIcEEE(ptr noundef nonnull align 8 dereferenceable(1560) getelementptr inbounds (%class.V3Global, ptr @v3Global, i32 0, i32 22), ptr noundef nonnull align 8 dereferenceable(32) %8)
          to label %30 unwind label %56

30:                                               ; preds = %28
  call void @_ZNSt7__cxx1112basic_stringIcSt11char_traitsIcESaIcEED1Ev(ptr noundef nonnull align 8 dereferenceable(32) %8) #3
  call void @_ZNSaIcED1Ev(ptr noundef nonnull align 1 dereferenceable(1) %9) #3
  store i32 %29, ptr %7, align 4
  %31 = load i32, ptr %6, align 4
  %32 = load i32, ptr %7, align 4
  %33 = icmp uge i32 %31, %32
  br i1 %33, label %34, label %36

34:                                               ; preds = %30
  %35 = load i32, ptr %6, align 4
  br label %38

36:                                               ; preds = %30
  %37 = load i32, ptr %7, align 4
  br label %38

38:                                               ; preds = %36, %34
  %39 = phi i32 [ %35, %34 ], [ %37, %36 ]
  store i32 %39, ptr %10, align 4
  %40 = invoke noundef zeroext i1 @_ZNK9V3Options9availableEv(ptr noundef nonnull align 8 dereferenceable(1560) getelementptr inbounds (%class.V3Global, ptr @v3Global, i32 0, i32 22))
          to label %41 unwind label %48

41:                                               ; preds = %38
  br i1 %40, label %61, label %42

42:                                               ; preds = %41
  %43 = load i32, ptr %10, align 4
  store i32 %43, ptr %1, align 4
  store i32 1, ptr %11, align 4
  br label %63

44:                                               ; preds = %16
  %45 = landingpad { ptr, i32 }
          cleanup
  %46 = extractvalue { ptr, i32 } %45, 0
  store ptr %46, ptr %4, align 8
  %47 = extractvalue { ptr, i32 } %45, 1
  store i32 %47, ptr %5, align 4
  call void @_ZNSaIcED1Ev(ptr noundef nonnull align 1 dereferenceable(1) %3) #3
  br label %71

48:                                               ; preds = %38, %25, %19, %17
  %49 = landingpad { ptr, i32 }
          cleanup
  %50 = extractvalue { ptr, i32 } %49, 0
  store ptr %50, ptr %4, align 8
  %51 = extractvalue { ptr, i32 } %49, 1
  store i32 %51, ptr %5, align 4
  br label %66

52:                                               ; preds = %27
  %53 = landingpad { ptr, i32 }
          cleanup
  %54 = extractvalue { ptr, i32 } %53, 0
  store ptr %54, ptr %4, align 8
  %55 = extractvalue { ptr, i32 } %53, 1
  store i32 %55, ptr %5, align 4
  br label %60

56:                                               ; preds = %28
  %57 = landingpad { ptr, i32 }
          cleanup
  %58 = extractvalue { ptr, i32 } %57, 0
  store ptr %58, ptr %4, align 8
  %59 = extractvalue { ptr, i32 } %57, 1
  store i32 %59, ptr %5, align 4
  call void @_ZNSt7__cxx1112basic_stringIcSt11char_traitsIcESaIcEED1Ev(ptr noundef nonnull align 8 dereferenceable(32) %8) #3
  br label %60

60:                                               ; preds = %56, %52
  call void @_ZNSaIcED1Ev(ptr noundef nonnull align 1 dereferenceable(1) %9) #3
  br label %66

61:                                               ; preds = %41
  %62 = load i32, ptr %10, align 4
  store i32 %62, ptr @_ZZL5debugvE5level, align 4
  store i32 0, ptr %11, align 4
  br label %63

63:                                               ; preds = %61, %42
  call void @_ZNSt7__cxx1112basic_stringIcSt11char_traitsIcESaIcEED1Ev(ptr noundef nonnull align 8 dereferenceable(32) %2) #3
  %64 = load i32, ptr %11, align 4
  switch i32 %64, label %76 [
    i32 0, label %65
    i32 1, label %69
  ]

65:                                               ; preds = %63
  br label %67

66:                                               ; preds = %60, %48
  call void @_ZNSt7__cxx1112basic_stringIcSt11char_traitsIcESaIcEED1Ev(ptr noundef nonnull align 8 dereferenceable(32) %2) #3
  br label %71

67:                                               ; preds = %65, %0
  %68 = load i32, ptr @_ZZL5debugvE5level, align 4
  store i32 %68, ptr %1, align 4
  br label %69

69:                                               ; preds = %67, %63
  %70 = load i32, ptr %1, align 4
  ret i32 %70

71:                                               ; preds = %66, %44
  %72 = load ptr, ptr %4, align 8
  %73 = load i32, ptr %5, align 4
  %74 = insertvalue { ptr, i32 } poison, ptr %72, 0
  %75 = insertvalue { ptr, i32 } %74, i32 %73, 1
  resume { ptr, i32 } %75

76:                                               ; preds = %63
  unreachable
}